target datalayout = "e-m:e-p270:32:32-p271:32:32-p272:64:64-i64:64-i128:128-f80:128-n8:16:32:64-S128"
target triple = "x86_64-pc-linux-gnu"

%struct._object = type { %union.anon.41, ptr }
%union.anon.41 = type { i64 }
%struct.anon.42 = type { i32, i32 }
%struct.PyStatus = type { i32, ptr, ptr, i32 }

@.str.161 = private unnamed_addr constant [9 x i8] c"builtins\00", align 1
@.str.178 = private unnamed_addr constant [3 x i8] c"io\00", align 1
@.str.193 = private unnamed_addr constant [5 x i8] c"open\00", align 1
@__func__.init_set_builtins_open = private unnamed_addr constant [23 x i8] c"init_set_builtins_open\00", align 1
@.str.194 = private unnamed_addr constant [25 x i8] c"can't initialize io.open\00", align 1

; Function Attrs: alwaysinline nounwind uwtable
define internal i32 @_Py_IsImmortal(ptr noundef %0) #12 {
  %2 = alloca ptr, align 8
  store ptr %0, ptr %2, align 8, !tbaa !232
  %3 = load ptr, ptr %2, align 8, !tbaa !232
  %4 = getelementptr inbounds nuw %struct._object, ptr %3, i32 0, i32 0
  %5 = getelementptr inbounds nuw %struct.anon.42, ptr %4, i32 0, i32 0
  %6 = load i32, ptr %5, align 8, !tbaa !181
  %7 = icmp slt i32 %6, 0
  %8 = zext i1 %7 to i32
  ret i32 %8
}

; Function Attrs: inlinehint nounwind uwtable
define internal void @Py_XDECREF(ptr noundef %0) #3 {
  %2 = alloca ptr, align 8
  store ptr %0, ptr %2, align 8, !tbaa !232
  %3 = load ptr, ptr %2, align 8, !tbaa !232
  %4 = icmp ne ptr %3, null
  br i1 %4, label %5, label %7

5:                                                ; preds = %1
  %6 = load ptr, ptr %2, align 8, !tbaa !232
  call void @Py_DECREF(ptr noundef %6)
  br label %7

7:                                                ; preds = %5, %1
  ret void
}

; Function Attrs: alwaysinline nounwind uwtable
define internal void @Py_DECREF(ptr noundef %0) #12 {
  %2 = alloca ptr, align 8
  store ptr %0, ptr %2, align 8, !tbaa !232
  %3 = load ptr, ptr %2, align 8, !tbaa !232
  %4 = call i32 @_Py_IsImmortal(ptr noundef %3)
  %5 = icmp ne i32 %4, 0
  br i1 %5, label %6, label %7

6:                                                ; preds = %1
  br label %16

7:                                                ; preds = %1
  %8 = load ptr, ptr %2, align 8, !tbaa !232
  %9 = getelementptr inbounds nuw %struct._object, ptr %8, i32 0, i32 0
  %10 = getelementptr inbounds nuw %struct.anon.42, ptr %9, i32 0, i32 0
  %11 = load i32, ptr %10, align 8, !tbaa !181
  %12 = add i32 %11, -1
  store i32 %12, ptr %10, align 8, !tbaa !181
  %13 = icmp eq i32 %12, 0
  br i1 %13, label %14, label %16

14:                                               ; preds = %7
  %15 = load ptr, ptr %2, align 8, !tbaa !232
  call void @_Py_Dealloc(ptr noundef %15)
  br label %16

16:                                               ; preds = %6, %14, %7
  ret void
}

; Function Attrs: nounwind uwtable
define internal void @init_set_builtins_open(ptr dead_on_unwind noalias writable sret(%struct.PyStatus) align 8 %0) #1 {
  %2 = alloca ptr, align 8
  %3 = alloca ptr, align 8
  %4 = alloca %struct.PyStatus, align 8
  call void @llvm.lifetime.start.p0(i64 8, ptr %2) #14
  call void @llvm.lifetime.start.p0(i64 8, ptr %3) #14
  store ptr null, ptr %3, align 8, !tbaa !232
  call void @llvm.memset.p0.i64(ptr align 8 %0, i8 0, i64 32, i1 false)
  %5 = call ptr @PyImport_ImportModule(ptr noundef @.str.161)
  store ptr %5, ptr %3, align 8, !tbaa !232
  %6 = icmp ne ptr %5, null
  br i1 %6, label %8, label %7

7:                                                ; preds = %1
  br label %21

8:                                                ; preds = %1
  %9 = call ptr @PyImport_ImportModuleAttrString(ptr noundef @.str.178, ptr noundef @.str.193)
  store ptr %9, ptr %2, align 8, !tbaa !232
  %10 = icmp ne ptr %9, null
  br i1 %10, label %12, label %11

11:                                               ; preds = %8
  br label %21

12:                                               ; preds = %8
  %13 = load ptr, ptr %3, align 8, !tbaa !232
  %14 = load ptr, ptr %2, align 8, !tbaa !232
  %15 = call i32 @PyObject_SetAttrString(ptr noundef %13, ptr noundef @.str.193, ptr noundef %14)
  %16 = icmp eq i32 %15, -1
  br i1 %16, label %17, label %19

17:                                               ; preds = %12
  %18 = load ptr, ptr %2, align 8, !tbaa !232
  call void @Py_DECREF(ptr noundef %18)
  br label %21

19:                                               ; preds = %12
  %20 = load ptr, ptr %2, align 8, !tbaa !232
  call void @Py_DECREF(ptr noundef %20)
  br label %28

21:                                               ; preds = %17, %11, %7
  %22 = getelementptr inbounds nuw %struct.PyStatus, ptr %4, i32 0, i32 0
  store i32 1, ptr %22, align 8, !tbaa !8
  %23 = getelementptr i8, ptr %4, i64 4
  call void @llvm.memset.p0.i64(ptr align 4 %23, i8 0, i64 4, i1 false)
  %24 = getelementptr inbounds nuw %struct.PyStatus, ptr %4, i32 0, i32 1
  store ptr @__func__.init_set_builtins_open, ptr %24, align 8, !tbaa !194
  %25 = getelementptr inbounds nuw %struct.PyStatus, ptr %4, i32 0, i32 2
  store ptr @.str.194, ptr %25, align 8, !tbaa !195
  %26 = getelementptr inbounds nuw %struct.PyStatus, ptr %4, i32 0, i32 3
  store i32 0, ptr %26, align 8, !tbaa !196
  %27 = getelementptr i8, ptr %4, i64 28
  call void @llvm.memset.p0.i64(ptr align 4 %27, i8 0, i64 4, i1 false)
  call void @llvm.memcpy.p0.p0.i64(ptr align 8 %0, ptr align 8 %4, i64 32, i1 false), !tbaa.struct !197
  br label %28

28:                                               ; preds = %21, %19
  %29 = load ptr, ptr %3, align 8, !tbaa !232
  call void @Py_XDECREF(ptr noundef %29)
  call void @llvm.lifetime.end.p0(i64 8, ptr %3) #14
  call void @llvm.lifetime.end.p0(i64 8, ptr %2) #14
  ret void
}