; Function Attrs: nounwind uwtable
define internal fastcc void @init_set_builtins_open(ptr dead_on_unwind noalias nonnull writable writeonly align 8 captures(none) initializes((0, 32)) %0) unnamed_addr #1 {
  tail call void @llvm.memset.p0.i64(ptr noundef nonnull align 8 dereferenceable(32) %0, i8 0, i64 32, i1 false)
  %2 = tail call ptr @PyImport_ImportModule(ptr noundef nonnull @.str.161) #23
  %.not = icmp eq ptr %2, null
  br i1 %.not, label %.split6, label %3

3:                                                ; preds = %1
  %4 = tail call ptr @PyImport_ImportModuleAttrString(ptr noundef nonnull @.str.178, ptr noundef nonnull @.str.193) #23
  %.not8 = icmp eq ptr %4, null
  br i1 %.not8, label %23, label %5

5:                                                ; preds = %3
  %6 = tail call i32 @PyObject_SetAttrString(ptr noundef nonnull %2, ptr noundef nonnull @.str.193, ptr noundef nonnull %4) #23
  %7 = icmp eq i32 %6, -1
  %8 = load i32, ptr %4, align 8, !tbaa !176
  %.not.i9 = icmp sgt i32 %8, -1
  br i1 %7, label %9, label %.split

9:                                                ; preds = %5
  br i1 %.not.i9, label %10, label %23

10:                                               ; preds = %9
  %11 = add nsw i32 %8, -1
  store i32 %11, ptr %4, align 8, !tbaa !176
  %12 = icmp eq i32 %11, 0
  br i1 %12, label %13, label %23

13:                                               ; preds = %10
  tail call void @_Py_Dealloc(ptr noundef nonnull %4) #23
  br label %23

.split:                                           ; preds = %5
  br i1 %.not.i9, label %14, label %Py_DECREF.exit

14:                                               ; preds = %.split
  %15 = add nsw i32 %8, -1
  store i32 %15, ptr %4, align 8, !tbaa !176
  %16 = icmp eq i32 %15, 0
  br i1 %16, label %17, label %Py_DECREF.exit

17:                                               ; preds = %14
  tail call void @_Py_Dealloc(ptr noundef nonnull %4) #23
  br label %Py_DECREF.exit

Py_DECREF.exit:                                   ; preds = %17, %14, %.split
  %18 = load i32, ptr %2, align 8, !tbaa !176
  %.not.i.i = icmp sgt i32 %18, -1
  br i1 %.not.i.i, label %19, label %Py_XDECREF.exit

19:                                               ; preds = %Py_DECREF.exit
  %20 = add nsw i32 %18, -1
  store i32 %20, ptr %2, align 8, !tbaa !176
  %21 = icmp eq i32 %20, 0
  br i1 %21, label %22, label %Py_XDECREF.exit

22:                                               ; preds = %19
  tail call void @_Py_Dealloc(ptr noundef nonnull %2) #23
  br label %Py_XDECREF.exit

.split6:                                          ; preds = %1
  store i32 1, ptr %0, align 8, !tbaa !191
  %.sroa.2.0..sroa_idx = getelementptr inbounds nuw i8, ptr %0, i64 4
  store i32 0, ptr %.sroa.2.0..sroa_idx, align 4
  %.sroa.3.0..sroa_idx = getelementptr inbounds nuw i8, ptr %0, i64 8
  store ptr @__func__.init_set_builtins_open, ptr %.sroa.3.0..sroa_idx, align 8, !tbaa !193
  %.sroa.4.0..sroa_idx = getelementptr inbounds nuw i8, ptr %0, i64 16
  store ptr @.str.194, ptr %.sroa.4.0..sroa_idx, align 8, !tbaa !193
  %.sroa.5.0..sroa_idx = getelementptr inbounds nuw i8, ptr %0, i64 24
  store i32 0, ptr %.sroa.5.0..sroa_idx, align 8, !tbaa !191
  %.sroa.6.0..sroa_idx = getelementptr inbounds nuw i8, ptr %0, i64 28
  store i32 0, ptr %.sroa.6.0..sroa_idx, align 4
  br label %Py_XDECREF.exit

23:                                               ; preds = %13, %10, %9, %3
  store i32 1, ptr %0, align 8, !tbaa !191
  %.sroa.2.0..sroa_idx16 = getelementptr inbounds nuw i8, ptr %0, i64 4
  store i32 0, ptr %.sroa.2.0..sroa_idx16, align 4
  %.sroa.3.0..sroa_idx17 = getelementptr inbounds nuw i8, ptr %0, i64 8
  store ptr @__func__.init_set_builtins_open, ptr %.sroa.3.0..sroa_idx17, align 8, !tbaa !193
  %.sroa.4.0..sroa_idx18 = getelementptr inbounds nuw i8, ptr %0, i64 16
  store ptr @.str.194, ptr %.sroa.4.0..sroa_idx18, align 8, !tbaa !193
  %.sroa.5.0..sroa_idx19 = getelementptr inbounds nuw i8, ptr %0, i64 24
  store i32 0, ptr %.sroa.5.0..sroa_idx19, align 8, !tbaa !191
  %.sroa.6.0..sroa_idx20 = getelementptr inbounds nuw i8, ptr %0, i64 28
  store i32 0, ptr %.sroa.6.0..sroa_idx20, align 4
  %24 = load i32, ptr %2, align 8, !tbaa !176
  %.not.i.i14 = icmp sgt i32 %24, -1
  br i1 %.not.i.i14, label %25, label %Py_XDECREF.exit

25:                                               ; preds = %23
  %26 = add nsw i32 %24, -1
  store i32 %26, ptr %2, align 8, !tbaa !176
  %27 = icmp eq i32 %26, 0
  br i1 %27, label %28, label %Py_XDECREF.exit

28:                                               ; preds = %25
  tail call void @_Py_Dealloc(ptr noundef nonnull %2) #23
  br label %Py_XDECREF.exit

Py_XDECREF.exit:                                  ; preds = %28, %25, %23, %.split6, %22, %19, %Py_DECREF.exit
  ret void
}